; Function Attrs: nounwind uwtable
define ptr @X509_PUBKEY_new_ex(ptr noundef %0, ptr noundef %1) local_unnamed_addr #0 {
  %3 = tail call ptr @ASN1_item_new_ex(ptr noundef nonnull @X509_PUBKEY_it.local_it, ptr noundef %0, ptr noundef %1) #9
  %.not.i = icmp eq ptr %3, null
  br i1 %.not.i, label %x509_pubkey_set0_libctx.exit, label %4

4:                                                ; preds = %2
  %5 = getelementptr inbounds nuw i8, ptr %3, i64 24
  store ptr %0, ptr %5, align 8, !tbaa !8
  %6 = getelementptr inbounds nuw i8, ptr %3, i64 32
  %7 = load ptr, ptr %6, align 8, !tbaa !16
  tail call void @CRYPTO_free(ptr noundef %7, ptr noundef nonnull @.str, i32 noundef 52) #9
  store ptr null, ptr %6, align 8, !tbaa !16
  %.not11.i = icmp eq ptr %1, null
  br i1 %.not11.i, label %x509_pubkey_set0_libctx.exit, label %8

8:                                                ; preds = %4
  %9 = tail call noalias ptr @CRYPTO_strdup(ptr noundef nonnull %1, ptr noundef nonnull @.str, i32 noundef 55) #9
  store ptr %9, ptr %6, align 8, !tbaa !16
  %10 = icmp eq ptr %9, null
  br i1 %10, label %11, label %x509_pubkey_set0_libctx.exit

11:                                               ; preds = %8
  tail call void @ASN1_item_free(ptr noundef nonnull %3, ptr noundef nonnull @X509_PUBKEY_it.local_it) #9
  br label %x509_pubkey_set0_libctx.exit

x509_pubkey_set0_libctx.exit:                     ; preds = %8, %4, %2, %11
  %.0 = phi ptr [ null, %11 ], [ null, %2 ], [ %3, %4 ], [ %3, %8 ]
  ret ptr %.0
}